; Function Attrs: mustprogress nounwind uwtable
define internal fastcc void @_ZSt8_DestroyIPN8nlohmann16json_abi_v3_11_310basic_jsonISt3mapSt6vectorNSt7__cxx1112basic_stringIcSt11char_traitsIcESaIcEEEblmdN12_GLOBAL__N_112my_allocatorENS1_14adl_serializerES4_IhSaIhEEvEENSC_ISG_EEEvT_SJ_RT0_(ptr noundef readonly %__first, ptr noundef readnone %__last) unnamed_addr #4 personality ptr @__gxx_personality_v0 {
entry:
  %cmp.not1 = icmp eq ptr %__first, %__last
  br i1 %cmp.not1, label %for.end, label %for.body

for.body:                                         ; preds = %entry, %_ZNSt16allocator_traitsIN12_GLOBAL__N_112my_allocatorIN8nlohmann16json_abi_v3_11_310basic_jsonISt3mapSt6vectorNSt7__cxx1112basic_stringIcSt11char_traitsIcESaIcEEEblmdS1_NS3_14adl_serializerES6_IhSaIhEEvEEEEE7destroyISG_EEvRSH_PT_.exit
  %__first.addr.02 = phi ptr [ %incdec.ptr, %_ZNSt16allocator_traitsIN12_GLOBAL__N_112my_allocatorIN8nlohmann16json_abi_v3_11_310basic_jsonISt3mapSt6vectorNSt7__cxx1112basic_stringIcSt11char_traitsIcESaIcEEEblmdS1_NS3_14adl_serializerES6_IhSaIhEEvEEEEE7destroyISG_EEvRSH_PT_.exit ], [ %__first, %entry ]
  %m_value.i.i.i.i = getelementptr inbounds i8, ptr %__first.addr.02, i64 8
  %0 = load i8, ptr %__first.addr.02, align 8
  invoke fastcc void @_ZN8nlohmann16json_abi_v3_11_310basic_jsonISt3mapSt6vectorNSt7__cxx1112basic_stringIcSt11char_traitsIcESaIcEEEblmdN12_GLOBAL__N_112my_allocatorENS0_14adl_serializerES3_IhSaIhEEvE10json_value7destroyENS0_6detail7value_tE(ptr noundef nonnull align 8 dereferenceable(8) %m_value.i.i.i.i, i8 noundef zeroext %0)
          to label %_ZNSt16allocator_traitsIN12_GLOBAL__N_112my_allocatorIN8nlohmann16json_abi_v3_11_310basic_jsonISt3mapSt6vectorNSt7__cxx1112basic_stringIcSt11char_traitsIcESaIcEEEblmdS1_NS3_14adl_serializerES6_IhSaIhEEvEEEEE7destroyISG_EEvRSH_PT_.exit unwind label %terminate.lpad.i.i.i.i

terminate.lpad.i.i.i.i:                           ; preds = %for.body
  %1 = landingpad { ptr, i32 }
          catch ptr null
  %2 = extractvalue { ptr, i32 } %1, 0
  tail call void @__clang_call_terminate(ptr %2) #19
  unreachable

_ZNSt16allocator_traitsIN12_GLOBAL__N_112my_allocatorIN8nlohmann16json_abi_v3_11_310basic_jsonISt3mapSt6vectorNSt7__cxx1112basic_stringIcSt11char_traitsIcESaIcEEEblmdS1_NS3_14adl_serializerES6_IhSaIhEEvEEEEE7destroyISG_EEvRSH_PT_.exit: ; preds = %for.body
  %incdec.ptr = getelementptr inbounds i8, ptr %__first.addr.02, i64 16
  %cmp.not = icmp eq ptr %incdec.ptr, %__last
  br i1 %cmp.not, label %for.end, label %for.body, !llvm.loop !33

for.end:                                          ; preds = %_ZNSt16allocator_traitsIN12_GLOBAL__N_112my_allocatorIN8nlohmann16json_abi_v3_11_310basic_jsonISt3mapSt6vectorNSt7__cxx1112basic_stringIcSt11char_traitsIcESaIcEEEblmdS1_NS3_14adl_serializerES6_IhSaIhEEvEEEEE7destroyISG_EEvRSH_PT_.exit, %entry
  ret void
}